; Function Attrs: nounwind uwtable
define i32 @av_opt_set_chlayout(ptr noundef %0, ptr noundef %1, ptr noundef %2, i32 noundef %3) local_unnamed_addr #2 {
  %5 = alloca ptr, align 8
  call void @llvm.lifetime.start.p0(i64 8, ptr nonnull %5) #18
  %6 = call fastcc i32 @opt_set_init(ptr noundef %0, ptr noundef %1, i32 noundef %3, i32 noundef 19, ptr noundef null, ptr noundef null, ptr noundef %5)
  %7 = icmp slt i32 %6, 0
  br i1 %7, label %11, label %8

8:                                                ; preds = %4
  %9 = load ptr, ptr %5, align 8, !tbaa !57
  %10 = tail call i32 @av_channel_layout_copy(ptr noundef %9, ptr noundef %2) #18
  br label %11

11:                                               ; preds = %4, %8
  %.0 = phi i32 [ %10, %8 ], [ %6, %4 ]
  call void @llvm.lifetime.end.p0(i64 8, ptr nonnull %5) #18
  ret i32 %.0
}